; Function Attrs: nounwind uwtable
define ptr @l_Lean_Elab_addDeclarationRangesFromSyntax___rarg(ptr noundef %0, ptr noundef %1, ptr noundef %2, ptr noundef %3, ptr noundef %4, ptr noundef %5) local_unnamed_addr #0 {
  %7 = getelementptr inbounds nuw i8, ptr %0, i64 16
  %8 = load ptr, ptr %7, align 8, !tbaa !4
  %9 = ptrtoint ptr %8 to i64
  %10 = and i64 %9, 1
  %.not = icmp eq i64 %10, 0
  br i1 %.not, label %11, label %lean_inc.exit26

11:                                               ; preds = %6
  %.val.i = load i32, ptr %8, align 4, !tbaa !8
  %12 = icmp sgt i32 %.val.i, 0
  br i1 %12, label %13, label %15, !prof !11

13:                                               ; preds = %11
  %14 = add nuw i32 %.val.i, 1
  store i32 %14, ptr %8, align 4, !tbaa !8
  br label %lean_inc.exit26

15:                                               ; preds = %11
  %.not.i = icmp eq i32 %.val.i, 0
  br i1 %.not.i, label %lean_inc.exit26, label %16

16:                                               ; preds = %15
  tail call void @lean_inc_ref_cold(ptr noundef nonnull %8) #3
  br label %lean_inc.exit26

lean_inc.exit26:                                  ; preds = %16, %15, %13, %6
  %17 = ptrtoint ptr %2 to i64
  %18 = and i64 %17, 1
  %.not36 = icmp eq i64 %18, 0
  br i1 %.not36, label %19, label %lean_inc.exit25

19:                                               ; preds = %lean_inc.exit26
  %.val.i27 = load i32, ptr %2, align 4, !tbaa !8
  %20 = icmp sgt i32 %.val.i27, 0
  br i1 %20, label %21, label %23, !prof !11

21:                                               ; preds = %19
  %22 = add nuw i32 %.val.i27, 1
  store i32 %22, ptr %2, align 4, !tbaa !8
  br label %lean_inc.exit25

23:                                               ; preds = %19
  %.not.i28 = icmp eq i32 %.val.i27, 0
  br i1 %.not.i28, label %lean_inc.exit25, label %24

24:                                               ; preds = %23
  tail call void @lean_inc_ref_cold(ptr noundef nonnull %2) #3
  br label %lean_inc.exit25

lean_inc.exit25:                                  ; preds = %24, %23, %21, %lean_inc.exit26
  %25 = ptrtoint ptr %0 to i64
  %26 = and i64 %25, 1
  %.not37 = icmp eq i64 %26, 0
  br i1 %.not37, label %27, label %lean_inc.exit24

27:                                               ; preds = %lean_inc.exit25
  %.val.i30 = load i32, ptr %0, align 4, !tbaa !8
  %28 = icmp sgt i32 %.val.i30, 0
  br i1 %28, label %29, label %31, !prof !11

29:                                               ; preds = %27
  %30 = add nuw i32 %.val.i30, 1
  store i32 %30, ptr %0, align 4, !tbaa !8
  br label %lean_inc.exit24

31:                                               ; preds = %27
  %.not.i31 = icmp eq i32 %.val.i30, 0
  br i1 %.not.i31, label %lean_inc.exit24, label %32

32:                                               ; preds = %31
  tail call void @lean_inc_ref_cold(ptr noundef nonnull %0) #3
  br label %lean_inc.exit24

lean_inc.exit24:                                  ; preds = %32, %31, %29, %lean_inc.exit25
  %33 = tail call ptr @l_Lean_Elab_getDeclarationRange_x3f___rarg(ptr noundef nonnull %0, ptr noundef %2, ptr noundef %4)
  br i1 %.not, label %34, label %lean_inc.exit

34:                                               ; preds = %lean_inc.exit24
  %.val.i33 = load i32, ptr %8, align 4, !tbaa !8
  %35 = icmp sgt i32 %.val.i33, 0
  br i1 %35, label %36, label %38, !prof !11

36:                                               ; preds = %34
  %37 = add nuw i32 %.val.i33, 1
  store i32 %37, ptr %8, align 4, !tbaa !8
  br label %lean_inc.exit

38:                                               ; preds = %34
  %.not.i34 = icmp eq i32 %.val.i33, 0
  br i1 %.not.i34, label %lean_inc.exit, label %39

39:                                               ; preds = %38
  tail call void @lean_inc_ref_cold(ptr noundef nonnull %8) #3
  br label %lean_inc.exit

lean_inc.exit:                                    ; preds = %39, %38, %36, %lean_inc.exit24
  tail call void @lean_inc_heartbeat() #3
  %40 = tail call noalias ptr @mi_malloc_small(i64 noundef 72) #3
  %41 = icmp eq ptr %40, null
  br i1 %41, label %42, label %lean_alloc_closure.exit

42:                                               ; preds = %lean_inc.exit
  tail call void @lean_internal_panic_out_of_memory() #4
  unreachable

lean_alloc_closure.exit:                          ; preds = %lean_inc.exit
  %43 = getelementptr inbounds nuw i8, ptr %40, i64 4
  store i32 1, ptr %40, align 4, !tbaa !8
  store i32 -184549304, ptr %43, align 4
  %44 = getelementptr inbounds nuw i8, ptr %40, i64 8
  store ptr @l_Lean_Elab_addDeclarationRangesFromSyntax___rarg___lambda__3___boxed, ptr %44, align 8, !tbaa !4
  %45 = getelementptr inbounds nuw i8, ptr %40, i64 16
  store i16 7, ptr %45, align 8, !tbaa !12
  %46 = getelementptr inbounds nuw i8, ptr %40, i64 18
  store i16 6, ptr %46, align 2, !tbaa !12
  %47 = getelementptr inbounds nuw i8, ptr %40, i64 24
  store ptr %0, ptr %47, align 8, !tbaa !4
  %48 = getelementptr inbounds nuw i8, ptr %40, i64 32
  store ptr %2, ptr %48, align 8, !tbaa !4
  %49 = getelementptr inbounds nuw i8, ptr %40, i64 40
  store ptr %5, ptr %49, align 8, !tbaa !4
  %50 = getelementptr inbounds nuw i8, ptr %40, i64 48
  store ptr %1, ptr %50, align 8, !tbaa !4
  %51 = getelementptr inbounds nuw i8, ptr %40, i64 56
  store ptr %3, ptr %51, align 8, !tbaa !4
  %52 = getelementptr inbounds nuw i8, ptr %40, i64 64
  store ptr %8, ptr %52, align 8, !tbaa !4
  %53 = tail call ptr @lean_apply_4(ptr noundef %8, ptr noundef nonnull inttoptr (i64 1 to ptr), ptr noundef nonnull inttoptr (i64 1 to ptr), ptr noundef %33, ptr noundef nonnull %40) #3
  ret ptr %53
}